; Function Attrs: mustprogress uwtable
define hidden noundef i32 @_ZN4cvc58internal7options23stringToBvSatSolverModeERKNSt7__cxx1112basic_stringIcSt11char_traitsIcESaIcEEE(ptr noundef nonnull align 8 dereferenceable(32) %optarg) local_unnamed_addr #3 personality ptr @__gxx_personality_v0 {
entry:
  %ref.tmp = alloca %"class.std::__cxx11::basic_string", align 8
  %ref.tmp17 = alloca %"class.std::__cxx11::basic_string", align 8
  %ref.tmp18 = alloca %"class.std::__cxx11::basic_string", align 8
  %ref.tmp19 = alloca %"class.std::allocator", align 1
  %call.i = tail call noundef i32 @_ZNKSt7__cxx1112basic_stringIcSt11char_traitsIcESaIcEE7compareEPKc(ptr noundef nonnull align 8 dereferenceable(32) %optarg, ptr noundef nonnull @.str.14) #12
  %cmp.i = icmp eq i32 %call.i, 0
  br i1 %cmp.i, label %return, label %if.else

if.else:                                          ; preds = %entry
  %call.i9 = tail call noundef i32 @_ZNKSt7__cxx1112basic_stringIcSt11char_traitsIcESaIcEE7compareEPKc(ptr noundef nonnull align 8 dereferenceable(32) %optarg, ptr noundef nonnull @.str.15) #12
  %cmp.i10 = icmp eq i32 %call.i9, 0
  br i1 %cmp.i10, label %return, label %if.else3

if.else3:                                         ; preds = %if.else
  %call.i11 = tail call noundef i32 @_ZNKSt7__cxx1112basic_stringIcSt11char_traitsIcESaIcEE7compareEPKc(ptr noundef nonnull align 8 dereferenceable(32) %optarg, ptr noundef nonnull @.str.16) #12
  %cmp.i12 = icmp eq i32 %call.i11, 0
  br i1 %cmp.i12, label %return, label %if.else6

if.else6:                                         ; preds = %if.else3
  %call.i13 = tail call noundef i32 @_ZNKSt7__cxx1112basic_stringIcSt11char_traitsIcESaIcEE7compareEPKc(ptr noundef nonnull align 8 dereferenceable(32) %optarg, ptr noundef nonnull @.str.17) #12
  %cmp.i14 = icmp eq i32 %call.i13, 0
  br i1 %cmp.i14, label %return, label %if.else9

if.else9:                                         ; preds = %if.else6
  %call.i15 = tail call noundef i32 @_ZNKSt7__cxx1112basic_stringIcSt11char_traitsIcESaIcEE7compareEPKc(ptr noundef nonnull align 8 dereferenceable(32) %optarg, ptr noundef nonnull @.str.4) #12
  %cmp.i16 = icmp eq i32 %call.i15, 0
  br i1 %cmp.i16, label %if.then11, label %if.end16

if.then11:                                        ; preds = %if.else9
  %call12 = tail call noundef nonnull align 8 dereferenceable(8) ptr @_ZStlsISt11char_traitsIcEERSt13basic_ostreamIcT_ES5_PKc(ptr noundef nonnull align 8 dereferenceable(8) @_ZSt4cerr, ptr noundef nonnull @.str.18)
  tail call void @exit(i32 noundef 1) #11
  unreachable

if.end16:                                         ; preds = %if.else9
  %exception = tail call ptr @__cxa_allocate_exception(i64 40) #12
  call void @_ZNSaIcEC1Ev(ptr noundef nonnull align 1 dereferenceable(1) %ref.tmp19) #12
  invoke void @_ZNSt7__cxx1112basic_stringIcSt11char_traitsIcESaIcEEC2IS3_EEPKcRKS3_(ptr noundef nonnull align 8 dereferenceable(32) %ref.tmp18, ptr noundef nonnull @.str.19, ptr noundef nonnull align 1 dereferenceable(1) %ref.tmp19)
          to label %invoke.cont unwind label %ehcleanup27.thread

invoke.cont:                                      ; preds = %if.end16
  %call.i1718 = invoke noundef nonnull align 8 dereferenceable(32) ptr @_ZNSt7__cxx1112basic_stringIcSt11char_traitsIcESaIcEE6appendERKS4_(ptr noundef nonnull align 8 dereferenceable(32) %ref.tmp18, ptr noundef nonnull align 8 dereferenceable(32) %optarg)
          to label %invoke.cont21 unwind label %lpad20

invoke.cont21:                                    ; preds = %invoke.cont
  call void @_ZNSt7__cxx1112basic_stringIcSt11char_traitsIcESaIcEEC1EOS4_(ptr noundef nonnull align 8 dereferenceable(32) %ref.tmp17, ptr noundef nonnull align 8 dereferenceable(32) %call.i1718) #12
  %call.i1920 = invoke noundef nonnull align 8 dereferenceable(32) ptr @_ZNSt7__cxx1112basic_stringIcSt11char_traitsIcESaIcEE6appendEPKc(ptr noundef nonnull align 8 dereferenceable(32) %ref.tmp17, ptr noundef nonnull @.str.20)
          to label %invoke.cont23 unwind label %lpad22

invoke.cont23:                                    ; preds = %invoke.cont21
  call void @_ZNSt7__cxx1112basic_stringIcSt11char_traitsIcESaIcEEC1EOS4_(ptr noundef nonnull align 8 dereferenceable(32) %ref.tmp, ptr noundef nonnull align 8 dereferenceable(32) %call.i1920) #12
  invoke void @_ZN4cvc58internal15OptionExceptionC2ERKNSt7__cxx1112basic_stringIcSt11char_traitsIcESaIcEEE(ptr noundef nonnull align 8 dereferenceable(40) %exception, ptr noundef nonnull align 8 dereferenceable(32) %ref.tmp)
          to label %invoke.cont25 unwind label %lpad24

invoke.cont25:                                    ; preds = %invoke.cont23
  invoke void @__cxa_throw(ptr nonnull %exception, ptr nonnull @_ZTIN4cvc58internal15OptionExceptionE, ptr nonnull @_ZN4cvc58internal15OptionExceptionD2Ev) #13
          to label %unreachable unwind label %lpad24

ehcleanup27.thread:                               ; preds = %if.end16
  %0 = landingpad { ptr, i32 }
          cleanup
  call void @_ZNSaIcED1Ev(ptr noundef nonnull align 1 dereferenceable(1) %ref.tmp19) #12
  br label %cleanup.action

lpad20:                                           ; preds = %invoke.cont
  %1 = landingpad { ptr, i32 }
          cleanup
  br label %ehcleanup27

lpad22:                                           ; preds = %invoke.cont21
  %2 = landingpad { ptr, i32 }
          cleanup
  br label %ehcleanup

lpad24:                                           ; preds = %invoke.cont25, %invoke.cont23
  %cleanup.isactive.0 = phi i1 [ false, %invoke.cont25 ], [ true, %invoke.cont23 ]
  %3 = landingpad { ptr, i32 }
          cleanup
  call void @_ZNSt7__cxx1112basic_stringIcSt11char_traitsIcESaIcEED1Ev(ptr noundef nonnull align 8 dereferenceable(32) %ref.tmp) #12
  br label %ehcleanup

ehcleanup:                                        ; preds = %lpad24, %lpad22
  %.pn = phi { ptr, i32 } [ %3, %lpad24 ], [ %2, %lpad22 ]
  %cleanup.isactive.1 = phi i1 [ %cleanup.isactive.0, %lpad24 ], [ true, %lpad22 ]
  call void @_ZNSt7__cxx1112basic_stringIcSt11char_traitsIcESaIcEED1Ev(ptr noundef nonnull align 8 dereferenceable(32) %ref.tmp17) #12
  br label %ehcleanup27

ehcleanup27:                                      ; preds = %lpad20, %ehcleanup
  %.pn.pn = phi { ptr, i32 } [ %.pn, %ehcleanup ], [ %1, %lpad20 ]
  %cleanup.isactive.2 = phi i1 [ %cleanup.isactive.1, %ehcleanup ], [ true, %lpad20 ]
  call void @_ZNSt7__cxx1112basic_stringIcSt11char_traitsIcESaIcEED1Ev(ptr noundef nonnull align 8 dereferenceable(32) %ref.tmp18) #12
  call void @_ZNSaIcED1Ev(ptr noundef nonnull align 1 dereferenceable(1) %ref.tmp19) #12
  br i1 %cleanup.isactive.2, label %cleanup.action, label %eh.resume

cleanup.action:                                   ; preds = %ehcleanup27.thread, %ehcleanup27
  %.pn.pn.pn24 = phi { ptr, i32 } [ %0, %ehcleanup27.thread ], [ %.pn.pn, %ehcleanup27 ]
  call void @__cxa_free_exception(ptr %exception) #12
  br label %eh.resume

return:                                           ; preds = %if.else6, %if.else3, %if.else, %entry
  %retval.0 = phi i32 [ 0, %entry ], [ 1, %if.else ], [ 2, %if.else3 ], [ 3, %if.else6 ]
  ret i32 %retval.0

eh.resume:                                        ; preds = %ehcleanup27, %cleanup.action
  %.pn.pn.pn23 = phi { ptr, i32 } [ %.pn.pn, %ehcleanup27 ], [ %.pn.pn.pn24, %cleanup.action ]
  resume { ptr, i32 } %.pn.pn.pn23

unreachable:                                      ; preds = %invoke.cont25
  unreachable
}